target datalayout = "e-m:e-p270:32:32-p271:32:32-p272:64:64-i64:64-i128:128-f80:128-n8:16:32:64-S128"
target triple = "x86_64-pc-linux-gnu"

%union.pthread_mutex_t = type { %struct.__pthread_mutex_s }
%struct.__pthread_mutex_s = type { i32, i32, i32, i32, i32, i16, i16, %struct.__pthread_internal_list }
%struct.__pthread_internal_list = type { ptr, ptr }
%struct.wolfSSL_RefWithMutex = type { %union.pthread_mutex_t, i32 }
%struct.WOLFSSL_CTX = type <{ ptr, %struct.wolfSSL_RefWithMutex, i32, [4 x i8], %struct.WOLFSSL_BUFFER_INFO, %struct.WOLFSSL_BUFFER_INFO, ptr, ptr, i32, [4 x i8], ptr, i8, i8, [2 x i8], i32, i32, [4 x i8], ptr, ptr, ptr, i8, i16, i8, i8, i8, i16, i16, i16, i16, [2 x i8], i64, ptr, ptr, ptr, ptr, i32, i32, i16, [2 x i8], i32, [10 x i16], i8, [3 x i8], ptr, ptr, i32, [4 x i8], ptr, i8, [7 x i8] }>
%struct.WOLFSSL_BUFFER_INFO = type { ptr, i32 }

; Function Attrs: nounwind uwtable
define i32 @wolfSSL_CTX_use_PrivateKey_buffer(ptr noundef %0, ptr noundef %1, i64 noundef %2, i32 noundef %3) #0 {
  %5 = alloca ptr, align 8
  %6 = alloca ptr, align 8
  %7 = alloca i64, align 8
  %8 = alloca i32, align 4
  %9 = alloca i32, align 4
  %10 = alloca i64, align 8
  store ptr %0, ptr %5, align 8, !tbaa !24
  store ptr %1, ptr %6, align 8, !tbaa !21
  store i64 %2, ptr %7, align 8, !tbaa !22
  store i32 %3, ptr %8, align 4, !tbaa !7
  call void @llvm.lifetime.start.p0(i64 4, ptr %9) #9
  call void @llvm.lifetime.start.p0(i64 8, ptr %10) #9
  store i64 0, ptr %10, align 8, !tbaa !22
  br label %11

11:                                               ; preds = %4
  br label %12

12:                                               ; preds = %11
  br label %13

13:                                               ; preds = %12
  %14 = load ptr, ptr %5, align 8, !tbaa !24
  %15 = load ptr, ptr %6, align 8, !tbaa !21
  %16 = load i64, ptr %7, align 8, !tbaa !22
  %17 = load i32, ptr %8, align 4, !tbaa !7
  %18 = load ptr, ptr %5, align 8, !tbaa !24
  %19 = icmp ne ptr %18, null
  br i1 %19, label %20, label %29

20:                                               ; preds = %13
  %21 = load ptr, ptr %5, align 8, !tbaa !24
  %22 = getelementptr inbounds nuw %struct.WOLFSSL_CTX, ptr %21, i32 0, i32 21
  %23 = load i16, ptr %22, align 1
  %24 = lshr i16 %23, 1
  %25 = and i16 %24, 1
  %26 = trunc i16 %25 to i8
  %27 = zext i8 %26 to i32
  %28 = icmp ne i32 %27, 0
  br label %29

29:                                               ; preds = %20, %13
  %30 = phi i1 [ false, %13 ], [ %28, %20 ]
  %31 = select i1 %30, i32 0, i32 1
  %32 = call i32 @ProcessBuffer(ptr noundef %14, ptr noundef %15, i64 noundef %16, i32 noundef %17, i32 noundef 1, ptr noundef null, ptr noundef %10, i32 noundef 0, i32 noundef %31)
  store i32 %32, ptr %9, align 4, !tbaa !7
  br label %33

33:                                               ; preds = %29
  br label %34

34:                                               ; preds = %33
  br label %35

35:                                               ; preds = %34
  %36 = load i32, ptr %9, align 4, !tbaa !7
  call void @llvm.lifetime.end.p0(i64 8, ptr %10) #9
  call void @llvm.lifetime.end.p0(i64 4, ptr %9) #9
  ret i32 %36
}