; Function Attrs: nounwind uwtable
define i32 @wolfSSL_CTX_use_PrivateKey_buffer(ptr noundef %0, ptr noundef %1, i64 noundef %2, i32 noundef %3) local_unnamed_addr #0 {
  %5 = alloca i64, align 8
  call void @llvm.lifetime.start.p0(i64 8, ptr nonnull %5) #22
  store i64 0, ptr %5, align 8, !tbaa !27
  %.not = icmp eq ptr %0, null
  br i1 %.not, label %.split, label %.split7

.split:                                           ; preds = %4
  %6 = call i32 @ProcessBuffer(ptr noundef null, ptr noundef %1, i64 noundef %2, i32 noundef %3, i32 noundef 1, ptr noundef null, ptr noundef nonnull %5, i32 noundef 0, i32 noundef 1)
  br label %12

.split7:                                          ; preds = %4
  %7 = getelementptr inbounds nuw i8, ptr %0, i64 169
  %8 = load i16, ptr %7, align 1
  %9 = and i16 %8, 2
  %.not8 = icmp eq i16 %9, 0
  %10 = zext i1 %.not8 to i32
  %11 = call i32 @ProcessBuffer(ptr noundef nonnull %0, ptr noundef %1, i64 noundef %2, i32 noundef %3, i32 noundef 1, ptr noundef null, ptr noundef nonnull %5, i32 noundef 0, i32 noundef %10)
  br label %12

12:                                               ; preds = %.split, %.split7
  %phi.call = phi i32 [ %6, %.split ], [ %11, %.split7 ]
  call void @llvm.lifetime.end.p0(i64 8, ptr nonnull %5) #22
  ret i32 %phi.call
}